target datalayout = "e-m:e-p270:32:32-p271:32:32-p272:64:64-i64:64-i128:128-f80:128-n8:16:32:64-S128"
target triple = "x86_64-pc-linux-gnu"

; Function Attrs: mustprogress nounwind uwtable
define linkonce_odr void @_ZSt9__fill_a1IPyiEN9__gnu_cxx11__enable_ifIXsr11__is_scalarIT0_EE7__valueEvE6__typeET_S6_RKS3_(ptr noundef %0, ptr noundef %1, ptr noundef nonnull align 4 dereferenceable(4) %2) #5 comdat {
  %4 = alloca ptr, align 8
  %5 = alloca ptr, align 8
  %6 = alloca ptr, align 8
  %7 = alloca i32, align 4
  store ptr %0, ptr %4, align 8
  store ptr %1, ptr %5, align 8
  store ptr %2, ptr %6, align 8
  %8 = load ptr, ptr %6, align 8
  %9 = load i32, ptr %8, align 4
  store i32 %9, ptr %7, align 4
  br label %10

10:                                               ; preds = %18, %3
  %11 = load ptr, ptr %4, align 8
  %12 = load ptr, ptr %5, align 8
  %13 = icmp ne ptr %11, %12
  br i1 %13, label %14, label %21

14:                                               ; preds = %10
  %15 = load i32, ptr %7, align 4
  %16 = sext i32 %15 to i64
  %17 = load ptr, ptr %4, align 8
  store i64 %16, ptr %17, align 8
  br label %18

18:                                               ; preds = %14
  %19 = load ptr, ptr %4, align 8
  %20 = getelementptr inbounds i64, ptr %19, i32 1
  store ptr %20, ptr %4, align 8
  br label %10, !llvm.loop !4

21:                                               ; preds = %10
  ret void
}

; Function Attrs: mustprogress uwtable
define linkonce_odr void @_ZSt8__fill_aIPyiEvT_S1_RKT0_(ptr noundef %0, ptr noundef %1, ptr noundef nonnull align 4 dereferenceable(4) %2) #4 comdat {
  %4 = alloca ptr, align 8
  %5 = alloca ptr, align 8
  %6 = alloca ptr, align 8
  store ptr %0, ptr %4, align 8
  store ptr %1, ptr %5, align 8
  store ptr %2, ptr %6, align 8
  %7 = load ptr, ptr %4, align 8
  %8 = load ptr, ptr %5, align 8
  %9 = load ptr, ptr %6, align 8
  call void @_ZSt9__fill_a1IPyiEN9__gnu_cxx11__enable_ifIXsr11__is_scalarIT0_EE7__valueEvE6__typeET_S6_RKS3_(ptr noundef %7, ptr noundef %8, ptr noundef nonnull align 4 dereferenceable(4) %9)
  ret void
}

; Function Attrs: mustprogress uwtable
define linkonce_odr noundef ptr @_ZSt10__fill_n_aIPyxiET_S1_T0_RKT1_St26random_access_iterator_tag(ptr noundef %0, i64 noundef %1, ptr noundef nonnull align 4 dereferenceable(4) %2) #4 comdat {
  %4 = alloca ptr, align 8
  %5 = alloca ptr, align 8
  %6 = alloca i64, align 8
  %7 = alloca ptr, align 8
  store ptr %0, ptr %5, align 8
  store i64 %1, ptr %6, align 8
  store ptr %2, ptr %7, align 8
  %8 = load i64, ptr %6, align 8
  %9 = icmp sle i64 %8, 0
  br i1 %9, label %10, label %12

10:                                               ; preds = %3
  %11 = load ptr, ptr %5, align 8
  store ptr %11, ptr %4, align 8
  br label %21

12:                                               ; preds = %3
  %13 = load ptr, ptr %5, align 8
  %14 = load ptr, ptr %5, align 8
  %15 = load i64, ptr %6, align 8
  %16 = getelementptr inbounds i64, ptr %14, i64 %15
  %17 = load ptr, ptr %7, align 8
  call void @_ZSt8__fill_aIPyiEvT_S1_RKT0_(ptr noundef %13, ptr noundef %16, ptr noundef nonnull align 4 dereferenceable(4) %17)
  %18 = load ptr, ptr %5, align 8
  %19 = load i64, ptr %6, align 8
  %20 = getelementptr inbounds i64, ptr %18, i64 %19
  store ptr %20, ptr %4, align 8
  br label %21

21:                                               ; preds = %12, %10
  %22 = load ptr, ptr %4, align 8
  ret ptr %22
}

; Function Attrs: mustprogress nounwind uwtable
define linkonce_odr void @_ZSt19__iterator_categoryIPyENSt15iterator_traitsIT_E17iterator_categoryERKS2_(ptr noundef nonnull align 8 dereferenceable(8) %0) #5 comdat {
  %2 = alloca ptr, align 8
  store ptr %0, ptr %2, align 8
  ret void
}

; Function Attrs: mustprogress nounwind uwtable
define linkonce_odr noundef i64 @_ZSt17__size_to_integerx(i64 noundef %0) #5 comdat {
  %2 = alloca i64, align 8
  store i64 %0, ptr %2, align 8
  %3 = load i64, ptr %2, align 8
  ret i64 %3
}

; Function Attrs: mustprogress uwtable
define linkonce_odr noundef ptr @_ZSt6fill_nIPyxiET_S1_T0_RKT1_(ptr noundef %0, i64 noundef %1, ptr noundef nonnull align 4 dereferenceable(4) %2) #4 comdat {
  %4 = alloca ptr, align 8
  %5 = alloca i64, align 8
  %6 = alloca ptr, align 8
  store ptr %0, ptr %4, align 8
  store i64 %1, ptr %5, align 8
  store ptr %2, ptr %6, align 8
  %7 = load ptr, ptr %4, align 8
  %8 = load i64, ptr %5, align 8
  %9 = call noundef i64 @_ZSt17__size_to_integerx(i64 noundef %8)
  %10 = load ptr, ptr %6, align 8
  call void @_ZSt19__iterator_categoryIPyENSt15iterator_traitsIT_E17iterator_categoryERKS2_(ptr noundef nonnull align 8 dereferenceable(8) %4)
  %11 = call noundef ptr @_ZSt10__fill_n_aIPyxiET_S1_T0_RKT1_St26random_access_iterator_tag(ptr noundef %7, i64 noundef %9, ptr noundef nonnull align 4 dereferenceable(4) %10)
  ret ptr %11
}

; Function Attrs: mustprogress uwtable
define linkonce_odr hidden noundef i64 @_ZNK6casadi6MXNode3nnzEx(ptr noundef nonnull align 8 dereferenceable(64) %0, i64 noundef %1) #4 comdat align 2 {
  %3 = alloca ptr, align 8
  %4 = alloca i64, align 8
  store ptr %0, ptr %3, align 8
  store i64 %1, ptr %4, align 8
  %5 = load ptr, ptr %3, align 8
  %6 = load i64, ptr %4, align 8
  %7 = load ptr, ptr %5, align 8
  %8 = getelementptr inbounds ptr, ptr %7, i64 44
  %9 = load ptr, ptr %8, align 8
  %10 = call noundef nonnull align 8 dereferenceable(8) ptr %9(ptr noundef nonnull align 8 dereferenceable(64) %5, i64 noundef %6)
  %11 = call noundef i64 @_ZNK6casadi8Sparsity3nnzEv(ptr noundef nonnull align 8 dereferenceable(8) %10)
  ret i64 %11
}

; Function Attrs: mustprogress uwtable
define noundef i32 @_ZNK6casadi10SymbolicMX10sp_forwardEPPKyPPyPxS4_(ptr noundef nonnull align 8 dereferenceable(96) %0, ptr noundef %1, ptr noundef %2, ptr noundef %3, ptr noundef %4) unnamed_addr #4 align 2 {
  %6 = alloca ptr, align 8
  %7 = alloca ptr, align 8
  %8 = alloca ptr, align 8
  %9 = alloca ptr, align 8
  %10 = alloca ptr, align 8
  %11 = alloca i32, align 4
  store ptr %0, ptr %6, align 8
  store ptr %1, ptr %7, align 8
  store ptr %2, ptr %8, align 8
  store ptr %3, ptr %9, align 8
  store ptr %4, ptr %10, align 8
  %12 = load ptr, ptr %6, align 8
  %13 = load ptr, ptr %8, align 8
  %14 = getelementptr inbounds ptr, ptr %13, i64 0
  %15 = load ptr, ptr %14, align 8
  %16 = call noundef i64 @_ZNK6casadi6MXNode3nnzEx(ptr noundef nonnull align 8 dereferenceable(64) %12, i64 noundef 0)
  store i32 0, ptr %11, align 4
  %17 = call noundef ptr @_ZSt6fill_nIPyxiET_S1_T0_RKT1_(ptr noundef %15, i64 noundef %16, ptr noundef nonnull align 4 dereferenceable(4) %11)
  ret i32 0
}